; Function Attrs: mustprogress nofree norecurse nosync nounwind willreturn memory(read, inaccessiblemem: none) uwtable
define hidden signext range(i8 0, 2) i8 @nfaExecMcClellan16_inAnyAccept(ptr noundef readonly captures(none) %0, ptr noundef readonly captures(none) %1) local_unnamed_addr #4 {
  %3 = getelementptr inbounds nuw i8, ptr %1, i64 16
  %4 = load ptr, ptr %3, align 8
  %5 = load i16, ptr %4, align 2
  %6 = getelementptr inbounds nuw i8, ptr %0, i64 99
  %7 = load i8, ptr %6, align 1
  %8 = icmp eq i8 %7, 1
  br i1 %8, label %9, label %12

9:                                                ; preds = %2
  %10 = getelementptr inbounds nuw i8, ptr %0, i64 94
  %11 = load i16, ptr %10, align 2
  %.not = icmp ult i16 %5, %11
  br i1 %.not, label %12, label %22

12:                                               ; preds = %9, %2
  %13 = getelementptr inbounds nuw i8, ptr %0, i64 76
  %14 = load i32, ptr %13, align 4
  %15 = zext i32 %14 to i64
  %16 = getelementptr inbounds nuw i8, ptr %0, i64 %15
  %17 = zext i16 %5 to i64
  %18 = getelementptr inbounds nuw %struct.mstate_aux, ptr %16, i64 %17
  %19 = load i32, ptr %18, align 4
  %20 = icmp ne i32 %19, 0
  %21 = zext i1 %20 to i8
  br label %22

22:                                               ; preds = %9, %12
  %23 = phi i8 [ %21, %12 ], [ 0, %9 ]
  ret i8 %23
}